target datalayout = "e-m:e-p270:32:32-p271:32:32-p272:64:64-i64:64-i128:128-f80:128-n8:16:32:64-S128"
target triple = "x86_64-pc-linux-gnu"

%"class.google::protobuf::io::EpsCopyOutputStream" = type <{ ptr, ptr, [32 x i8], ptr, i8, i8, i8, [5 x i8] }>
%"struct.google::protobuf::Metadata" = type { ptr, ptr }
%"class.google::protobuf::internal::SymbolBase" = type { i8 }
%"class.google::protobuf::FieldDescriptor" = type { %"class.google::protobuf::internal::SymbolBase", i8, i8, i8, i32, ptr, ptr, ptr, ptr, %union.anon.9, %union.anon.10, ptr, %union.anon.11 }
%union.anon.9 = type { ptr }
%union.anon.10 = type { ptr }
%union.anon.11 = type { i64 }

; Function Attrs: inlinehint mustprogress nounwind uwtable
define linkonce_odr hidden noundef i32 @_ZN6google8protobuf8internal14WireFormatLite7MakeTagEiNS2_8WireTypeE(i32 noundef %0, i32 noundef %1) #6 comdat align 2 {
  %3 = alloca i32, align 4
  %4 = alloca i32, align 4
  store i32 %0, ptr %3, align 4, !tbaa !10
  store i32 %1, ptr %4, align 4, !tbaa !19
  %5 = load i32, ptr %3, align 4, !tbaa !10
  %6 = shl i32 %5, 3
  %7 = load i32, ptr %4, align 4, !tbaa !19
  %8 = or i32 %6, %7
  ret i32 %8
}

; Function Attrs: alwaysinline mustprogress nounwind uwtable
define linkonce_odr hidden noundef ptr @_ZN6google8protobuf2io19EpsCopyOutputStream12UnsafeVarintIjEEPhT_S4_(i32 noundef %0, ptr noundef %1) #12 comdat align 2 {
  %3 = alloca ptr, align 8
  %4 = alloca i32, align 4
  %5 = alloca ptr, align 8
  store i32 %0, ptr %4, align 4, !tbaa !10
  store ptr %1, ptr %5, align 8, !tbaa !51
  %6 = load i32, ptr %4, align 4, !tbaa !10
  %7 = trunc i32 %6 to i8
  %8 = load ptr, ptr %5, align 8, !tbaa !51
  %9 = getelementptr inbounds i8, ptr %8, i64 0
  store i8 %7, ptr %9, align 1, !tbaa !33
  %10 = load i32, ptr %4, align 4, !tbaa !10
  %11 = icmp ult i32 %10, 128
  br i1 %11, label %12, label %15

12:                                               ; preds = %2
  %13 = load ptr, ptr %5, align 8, !tbaa !51
  %14 = getelementptr inbounds i8, ptr %13, i64 1
  store ptr %14, ptr %3, align 8
  br label %55

15:                                               ; preds = %2
  %16 = load ptr, ptr %5, align 8, !tbaa !51
  %17 = getelementptr inbounds i8, ptr %16, i64 0
  %18 = load i8, ptr %17, align 1, !tbaa !33
  %19 = zext i8 %18 to i32
  %20 = or i32 %19, 128
  %21 = trunc i32 %20 to i8
  store i8 %21, ptr %17, align 1, !tbaa !33
  %22 = load i32, ptr %4, align 4, !tbaa !10
  %23 = lshr i32 %22, 7
  store i32 %23, ptr %4, align 4, !tbaa !10
  %24 = load i32, ptr %4, align 4, !tbaa !10
  %25 = trunc i32 %24 to i8
  %26 = load ptr, ptr %5, align 8, !tbaa !51
  %27 = getelementptr inbounds i8, ptr %26, i64 1
  store i8 %25, ptr %27, align 1, !tbaa !33
  %28 = load i32, ptr %4, align 4, !tbaa !10
  %29 = icmp ult i32 %28, 128
  br i1 %29, label %30, label %33

30:                                               ; preds = %15
  %31 = load ptr, ptr %5, align 8, !tbaa !51
  %32 = getelementptr inbounds i8, ptr %31, i64 2
  store ptr %32, ptr %3, align 8
  br label %55

33:                                               ; preds = %15
  %34 = load ptr, ptr %5, align 8, !tbaa !51
  %35 = getelementptr inbounds i8, ptr %34, i64 2
  store ptr %35, ptr %5, align 8, !tbaa !51
  br label %36

36:                                               ; preds = %50, %33
  %37 = load ptr, ptr %5, align 8, !tbaa !51
  %38 = getelementptr inbounds i8, ptr %37, i64 -1
  %39 = load i8, ptr %38, align 1, !tbaa !33
  %40 = zext i8 %39 to i32
  %41 = or i32 %40, 128
  %42 = trunc i32 %41 to i8
  store i8 %42, ptr %38, align 1, !tbaa !33
  %43 = load i32, ptr %4, align 4, !tbaa !10
  %44 = lshr i32 %43, 7
  store i32 %44, ptr %4, align 4, !tbaa !10
  %45 = load i32, ptr %4, align 4, !tbaa !10
  %46 = trunc i32 %45 to i8
  %47 = load ptr, ptr %5, align 8, !tbaa !51
  store i8 %46, ptr %47, align 1, !tbaa !33
  %48 = load ptr, ptr %5, align 8, !tbaa !51
  %49 = getelementptr inbounds nuw i8, ptr %48, i32 1
  store ptr %49, ptr %5, align 8, !tbaa !51
  br label %50

50:                                               ; preds = %36
  %51 = load i32, ptr %4, align 4, !tbaa !10
  %52 = icmp uge i32 %51, 128
  br i1 %52, label %36, label %53, !llvm.loop !321

53:                                               ; preds = %50
  %54 = load ptr, ptr %5, align 8, !tbaa !51
  store ptr %54, ptr %3, align 8
  br label %55

55:                                               ; preds = %53, %30, %12
  %56 = load ptr, ptr %3, align 8
  ret ptr %56
}

; Function Attrs: inlinehint mustprogress uwtable
define linkonce_odr hidden noundef ptr @_ZN6google8protobuf2io17CodedOutputStream29WriteVarint32ToArrayOutOfLineEjPh(i32 noundef %0, ptr noundef %1) #7 comdat align 2 {
  %3 = alloca ptr, align 8
  %4 = alloca i32, align 4
  %5 = alloca ptr, align 8
  store i32 %0, ptr %4, align 4, !tbaa !10
  store ptr %1, ptr %5, align 8, !tbaa !51
  %6 = load i32, ptr %4, align 4, !tbaa !10
  %7 = trunc i32 %6 to i8
  %8 = load ptr, ptr %5, align 8, !tbaa !51
  %9 = getelementptr inbounds i8, ptr %8, i64 0
  store i8 %7, ptr %9, align 1, !tbaa !33
  %10 = load i32, ptr %4, align 4, !tbaa !10
  %11 = icmp ult i32 %10, 128
  br i1 %11, label %12, label %15

12:                                               ; preds = %2
  %13 = load ptr, ptr %5, align 8, !tbaa !51
  %14 = getelementptr inbounds i8, ptr %13, i64 1
  store ptr %14, ptr %3, align 8
  br label %19

15:                                               ; preds = %2
  %16 = load i32, ptr %4, align 4, !tbaa !10
  %17 = load ptr, ptr %5, align 8, !tbaa !51
  %18 = call noundef ptr @_ZN6google8protobuf2io17CodedOutputStream35WriteVarint32ToArrayOutOfLineHelperEjPh(i32 noundef %16, ptr noundef %17)
  store ptr %18, ptr %3, align 8
  br label %19

19:                                               ; preds = %15, %12
  %20 = load ptr, ptr %3, align 8
  ret ptr %20
}

; Function Attrs: alwaysinline mustprogress uwtable
define linkonce_odr hidden noundef ptr @_ZN6google8protobuf8internal14WireFormatLite23WriteUInt32NoTagToArrayEjPh(i32 noundef %0, ptr noundef %1) #8 comdat align 2 {
  %3 = alloca i32, align 4
  %4 = alloca ptr, align 8
  store i32 %0, ptr %3, align 4, !tbaa !10
  store ptr %1, ptr %4, align 8, !tbaa !51
  %5 = load i32, ptr %3, align 4, !tbaa !10
  %6 = load ptr, ptr %4, align 8, !tbaa !51
  %7 = call noundef ptr @_ZN6google8protobuf2io17CodedOutputStream20WriteVarint32ToArrayEjPh(i32 noundef %5, ptr noundef %6)
  ret ptr %7
}

; Function Attrs: alwaysinline mustprogress uwtable
define linkonce_odr hidden noundef ptr @_ZN6google8protobuf8internal14WireFormatLite15WriteTagToArrayEiNS2_8WireTypeEPh(i32 noundef %0, i32 noundef %1, ptr noundef %2) #8 comdat align 2 {
  %4 = alloca i32, align 4
  %5 = alloca i32, align 4
  %6 = alloca ptr, align 8
  store i32 %0, ptr %4, align 4, !tbaa !10
  store i32 %1, ptr %5, align 4, !tbaa !19
  store ptr %2, ptr %6, align 8, !tbaa !51
  %7 = load i32, ptr %4, align 4, !tbaa !10
  %8 = load i32, ptr %5, align 4, !tbaa !19
  %9 = call noundef i32 @_ZN6google8protobuf8internal14WireFormatLite7MakeTagEiNS2_8WireTypeE(i32 noundef %7, i32 noundef %8)
  %10 = load ptr, ptr %6, align 8, !tbaa !51
  %11 = call noundef ptr @_ZN6google8protobuf2io17CodedOutputStream15WriteTagToArrayEjPh(i32 noundef %9, ptr noundef %10)
  ret ptr %11
}

; Function Attrs: inlinehint mustprogress uwtable
define linkonce_odr hidden noundef ptr @_ZN6google8protobuf2io17CodedOutputStream20WriteVarint32ToArrayEjPh(i32 noundef %0, ptr noundef %1) #7 comdat align 2 {
  %3 = alloca i32, align 4
  %4 = alloca ptr, align 8
  store i32 %0, ptr %3, align 4, !tbaa !10
  store ptr %1, ptr %4, align 8, !tbaa !51
  %5 = load i32, ptr %3, align 4, !tbaa !10
  %6 = load ptr, ptr %4, align 8, !tbaa !51
  %7 = call noundef ptr @_ZN6google8protobuf2io19EpsCopyOutputStream12UnsafeVarintIjEEPhT_S4_(i32 noundef %5, ptr noundef %6)
  ret ptr %7
}

; Function Attrs: alwaysinline mustprogress uwtable
define linkonce_odr hidden noundef ptr @_ZN6google8protobuf8internal14WireFormatLite20InternalWriteMessageINS0_7MessageEEEPhiRKT_S5_PNS0_2io19EpsCopyOutputStreamE(i32 noundef %0, ptr noundef nonnull align 8 dereferenceable(16) %1, ptr noundef %2, ptr noundef %3) #8 comdat align 2 {
  %5 = alloca i32, align 4
  %6 = alloca ptr, align 8
  %7 = alloca ptr, align 8
  %8 = alloca ptr, align 8
  store i32 %0, ptr %5, align 4, !tbaa !10
  store ptr %1, ptr %6, align 8, !tbaa !72
  store ptr %2, ptr %7, align 8, !tbaa !51
  store ptr %3, ptr %8, align 8, !tbaa !52
  %9 = load i32, ptr %5, align 4, !tbaa !10
  %10 = load ptr, ptr %7, align 8, !tbaa !51
  %11 = call noundef ptr @_ZN6google8protobuf8internal14WireFormatLite15WriteTagToArrayEiNS2_8WireTypeEPh(i32 noundef %9, i32 noundef 2, ptr noundef %10)
  store ptr %11, ptr %7, align 8, !tbaa !51
  %12 = load ptr, ptr %6, align 8, !tbaa !72
  %13 = load ptr, ptr %12, align 8, !tbaa !81
  %14 = getelementptr inbounds ptr, ptr %13, i64 9
  %15 = load ptr, ptr %14, align 8
  %16 = call noundef i32 %15(ptr noundef nonnull align 8 dereferenceable(16) %12)
  %17 = load ptr, ptr %7, align 8, !tbaa !51
  %18 = call noundef ptr @_ZN6google8protobuf2io17CodedOutputStream29WriteVarint32ToArrayOutOfLineEjPh(i32 noundef %16, ptr noundef %17)
  store ptr %18, ptr %7, align 8, !tbaa !51
  %19 = load ptr, ptr %6, align 8, !tbaa !72
  %20 = load ptr, ptr %7, align 8, !tbaa !51
  %21 = load ptr, ptr %8, align 8, !tbaa !52
  %22 = load ptr, ptr %19, align 8, !tbaa !81
  %23 = getelementptr inbounds ptr, ptr %22, i64 11
  %24 = load ptr, ptr %23, align 8
  %25 = call noundef ptr %24(ptr noundef nonnull align 8 dereferenceable(16) %19, ptr noundef %20, ptr noundef %21)
  ret ptr %25
}

; Function Attrs: alwaysinline mustprogress uwtable
define linkonce_odr hidden noundef ptr @_ZN6google8protobuf8internal14WireFormatLite18WriteUInt32ToArrayEijPh(i32 noundef %0, i32 noundef %1, ptr noundef %2) #8 comdat align 2 {
  %4 = alloca i32, align 4
  %5 = alloca i32, align 4
  %6 = alloca ptr, align 8
  store i32 %0, ptr %4, align 4, !tbaa !10
  store i32 %1, ptr %5, align 4, !tbaa !10
  store ptr %2, ptr %6, align 8, !tbaa !51
  %7 = load i32, ptr %4, align 4, !tbaa !10
  %8 = load ptr, ptr %6, align 8, !tbaa !51
  %9 = call noundef ptr @_ZN6google8protobuf8internal14WireFormatLite15WriteTagToArrayEiNS2_8WireTypeEPh(i32 noundef %7, i32 noundef 0, ptr noundef %8)
  store ptr %9, ptr %6, align 8, !tbaa !51
  %10 = load i32, ptr %5, align 4, !tbaa !10
  %11 = load ptr, ptr %6, align 8, !tbaa !51
  %12 = call noundef ptr @_ZN6google8protobuf8internal14WireFormatLite23WriteUInt32NoTagToArrayEjPh(i32 noundef %10, ptr noundef %11)
  ret ptr %12
}

; Function Attrs: inlinehint mustprogress nounwind uwtable
define linkonce_odr hidden noundef i32 @_ZNK6google8protobuf15FieldDescriptor6numberEv(ptr noundef nonnull align 8 dereferenceable(72) %0) #6 comdat align 2 {
  %2 = alloca ptr, align 8
  store ptr %0, ptr %2, align 8, !tbaa !78
  %3 = load ptr, ptr %2, align 8
  %4 = getelementptr inbounds nuw %"class.google::protobuf::FieldDescriptor", ptr %3, i32 0, i32 4
  %5 = load i32, ptr %4, align 4, !tbaa !253
  ret i32 %5
}

; Function Attrs: alwaysinline mustprogress uwtable
define linkonce_odr hidden noundef ptr @_ZN6google8protobuf2io17CodedOutputStream15WriteTagToArrayEjPh(i32 noundef %0, ptr noundef %1) #8 comdat align 2 {
  %3 = alloca i32, align 4
  %4 = alloca ptr, align 8
  store i32 %0, ptr %3, align 4, !tbaa !10
  store ptr %1, ptr %4, align 8, !tbaa !51
  %5 = load i32, ptr %3, align 4, !tbaa !10
  %6 = load ptr, ptr %4, align 8, !tbaa !51
  %7 = call noundef ptr @_ZN6google8protobuf2io17CodedOutputStream20WriteVarint32ToArrayEjPh(i32 noundef %5, ptr noundef %6)
  ret ptr %7
}

; Function Attrs: mustprogress uwtable
define linkonce_odr hidden noundef ptr @_ZN6google8protobuf2io19EpsCopyOutputStream11EnsureSpaceEPh(ptr noundef nonnull align 8 dereferenceable(59) %0, ptr noundef %1) #4 comdat align 2 {
  %3 = alloca ptr, align 8
  %4 = alloca ptr, align 8
  %5 = alloca ptr, align 8
  store ptr %0, ptr %4, align 8, !tbaa !52
  store ptr %1, ptr %5, align 8, !tbaa !51
  %6 = load ptr, ptr %4, align 8
  %7 = load ptr, ptr %5, align 8, !tbaa !51
  %8 = getelementptr inbounds nuw %"class.google::protobuf::io::EpsCopyOutputStream", ptr %6, i32 0, i32 0
  %9 = load ptr, ptr %8, align 8, !tbaa !57
  %10 = icmp uge ptr %7, %9
  %11 = zext i1 %10 to i64
  %12 = call i64 @llvm.expect.i64(i64 %11, i64 0)
  %13 = icmp ne i64 %12, 0
  br i1 %13, label %14, label %17

14:                                               ; preds = %2
  %15 = load ptr, ptr %5, align 8, !tbaa !51
  %16 = call noundef ptr @_ZN6google8protobuf2io19EpsCopyOutputStream19EnsureSpaceFallbackEPh(ptr noundef nonnull align 8 dereferenceable(59) %6, ptr noundef %15)
  store ptr %16, ptr %3, align 8
  br label %19

17:                                               ; preds = %2
  %18 = load ptr, ptr %5, align 8, !tbaa !51
  store ptr %18, ptr %3, align 8
  br label %19

19:                                               ; preds = %17, %14
  %20 = load ptr, ptr %3, align 8
  ret ptr %20
}

; Function Attrs: mustprogress uwtable
define linkonce_odr hidden noundef ptr @_ZNK6google8protobuf7Message13GetReflectionEv(ptr noundef nonnull align 8 dereferenceable(16) %0) #4 comdat align 2 {
  %2 = alloca ptr, align 8
  %3 = alloca %"struct.google::protobuf::Metadata", align 8
  store ptr %0, ptr %2, align 8, !tbaa !72
  %4 = load ptr, ptr %2, align 8
  call void @llvm.lifetime.start.p0(i64 16, ptr %3) #3
  %5 = load ptr, ptr %4, align 8, !tbaa !81
  %6 = getelementptr inbounds ptr, ptr %5, i64 17
  %7 = load ptr, ptr %6, align 8
  %8 = call { ptr, ptr } %7(ptr noundef nonnull align 8 dereferenceable(16) %4)
  %9 = getelementptr inbounds nuw { ptr, ptr }, ptr %3, i32 0, i32 0
  %10 = extractvalue { ptr, ptr } %8, 0
  store ptr %10, ptr %9, align 8
  %11 = getelementptr inbounds nuw { ptr, ptr }, ptr %3, i32 0, i32 1
  %12 = extractvalue { ptr, ptr } %8, 1
  store ptr %12, ptr %11, align 8
  %13 = getelementptr inbounds nuw %"struct.google::protobuf::Metadata", ptr %3, i32 0, i32 1
  %14 = load ptr, ptr %13, align 8, !tbaa !85
  call void @llvm.lifetime.end.p0(i64 16, ptr %3) #3
  ret ptr %14
}

; Function Attrs: mustprogress uwtable
define hidden noundef ptr @_ZN6google8protobuf8internal10WireFormat31InternalSerializeMessageSetItemEPKNS0_15FieldDescriptorERKNS0_7MessageEPhPNS0_2io19EpsCopyOutputStreamE(ptr noundef %0, ptr noundef nonnull align 8 dereferenceable(16) %1, ptr noundef %2, ptr noundef %3) #4 align 2 {
  %5 = alloca ptr, align 8
  %6 = alloca ptr, align 8
  %7 = alloca ptr, align 8
  %8 = alloca ptr, align 8
  %9 = alloca ptr, align 8
  store ptr %0, ptr %5, align 8, !tbaa !78
  store ptr %1, ptr %6, align 8, !tbaa !72
  store ptr %2, ptr %7, align 8, !tbaa !51
  store ptr %3, ptr %8, align 8, !tbaa !52
  call void @llvm.lifetime.start.p0(i64 8, ptr %9) #3
  %10 = load ptr, ptr %6, align 8, !tbaa !72
  %11 = call noundef ptr @_ZNK6google8protobuf7Message13GetReflectionEv(ptr noundef nonnull align 8 dereferenceable(16) %10)
  store ptr %11, ptr %9, align 8, !tbaa !76
  %12 = load ptr, ptr %8, align 8, !tbaa !52
  %13 = load ptr, ptr %7, align 8, !tbaa !51
  %14 = call noundef ptr @_ZN6google8protobuf2io19EpsCopyOutputStream11EnsureSpaceEPh(ptr noundef nonnull align 8 dereferenceable(59) %12, ptr noundef %13)
  store ptr %14, ptr %7, align 8, !tbaa !51
  %15 = load ptr, ptr %7, align 8, !tbaa !51
  %16 = call noundef ptr @_ZN6google8protobuf2io17CodedOutputStream15WriteTagToArrayEjPh(i32 noundef 11, ptr noundef %15)
  store ptr %16, ptr %7, align 8, !tbaa !51
  %17 = load ptr, ptr %5, align 8, !tbaa !78
  %18 = call noundef i32 @_ZNK6google8protobuf15FieldDescriptor6numberEv(ptr noundef nonnull align 8 dereferenceable(72) %17)
  %19 = load ptr, ptr %7, align 8, !tbaa !51
  %20 = call noundef ptr @_ZN6google8protobuf8internal14WireFormatLite18WriteUInt32ToArrayEijPh(i32 noundef 2, i32 noundef %18, ptr noundef %19)
  store ptr %20, ptr %7, align 8, !tbaa !51
  %21 = load ptr, ptr %9, align 8, !tbaa !76
  %22 = load ptr, ptr %6, align 8, !tbaa !72
  %23 = load ptr, ptr %5, align 8, !tbaa !78
  %24 = call noundef nonnull align 8 dereferenceable(16) ptr @_ZNK6google8protobuf10Reflection10GetMessageERKNS0_7MessageEPKNS0_15FieldDescriptorEPNS0_14MessageFactoryE(ptr noundef nonnull align 8 dereferenceable(96) %21, ptr noundef nonnull align 8 dereferenceable(16) %22, ptr noundef %23, ptr noundef null)
  %25 = load ptr, ptr %7, align 8, !tbaa !51
  %26 = load ptr, ptr %8, align 8, !tbaa !52
  %27 = call noundef ptr @_ZN6google8protobuf8internal14WireFormatLite20InternalWriteMessageINS0_7MessageEEEPhiRKT_S5_PNS0_2io19EpsCopyOutputStreamE(i32 noundef 3, ptr noundef nonnull align 8 dereferenceable(16) %24, ptr noundef %25, ptr noundef %26)
  store ptr %27, ptr %7, align 8, !tbaa !51
  %28 = load ptr, ptr %8, align 8, !tbaa !52
  %29 = load ptr, ptr %7, align 8, !tbaa !51
  %30 = call noundef ptr @_ZN6google8protobuf2io19EpsCopyOutputStream11EnsureSpaceEPh(ptr noundef nonnull align 8 dereferenceable(59) %28, ptr noundef %29)
  store ptr %30, ptr %7, align 8, !tbaa !51
  %31 = load ptr, ptr %7, align 8, !tbaa !51
  %32 = call noundef ptr @_ZN6google8protobuf2io17CodedOutputStream15WriteTagToArrayEjPh(i32 noundef 12, ptr noundef %31)
  store ptr %32, ptr %7, align 8, !tbaa !51
  %33 = load ptr, ptr %7, align 8, !tbaa !51
  call void @llvm.lifetime.end.p0(i64 8, ptr %9) #3
  ret ptr %33
}