; Function Attrs: mustprogress uwtable
define hidden noundef ptr @_ZN6google8protobuf8internal10WireFormat31InternalSerializeMessageSetItemEPKNS0_15FieldDescriptorERKNS0_7MessageEPhPNS0_2io19EpsCopyOutputStreamE(ptr noundef %0, ptr noundef nonnull align 8 dereferenceable(16) %1, ptr noundef %2, ptr noundef %3) local_unnamed_addr #3 align 2 {
  %5 = load ptr, ptr %1, align 8, !tbaa !53
  %6 = getelementptr inbounds nuw i8, ptr %5, i64 136
  %7 = load ptr, ptr %6, align 8
  %8 = tail call { ptr, ptr } %7(ptr noundef nonnull align 8 dereferenceable(16) %1)
  %9 = extractvalue { ptr, ptr } %8, 1
  %10 = load ptr, ptr %3, align 8, !tbaa !35
  %.not.i = icmp ult ptr %2, %10
  br i1 %.not.i, label %_ZN6google8protobuf2io19EpsCopyOutputStream11EnsureSpaceEPh.exit, label %11, !prof !19

11:                                               ; preds = %4
  %12 = tail call noundef ptr @_ZN6google8protobuf2io19EpsCopyOutputStream19EnsureSpaceFallbackEPh(ptr noundef nonnull align 8 dereferenceable(59) %3, ptr noundef %2)
  br label %_ZN6google8protobuf2io19EpsCopyOutputStream11EnsureSpaceEPh.exit

_ZN6google8protobuf2io19EpsCopyOutputStream11EnsureSpaceEPh.exit: ; preds = %4, %11
  %.0.i = phi ptr [ %12, %11 ], [ %2, %4 ]
  store i8 11, ptr %.0.i, align 1, !tbaa !20
  %13 = getelementptr inbounds nuw i8, ptr %.0.i, i64 1
  %14 = getelementptr inbounds nuw i8, ptr %0, i64 4
  %15 = load i32, ptr %14, align 4, !tbaa !188
  store i8 16, ptr %13, align 1, !tbaa !20
  %16 = getelementptr inbounds nuw i8, ptr %.0.i, i64 2
  %17 = trunc i32 %15 to i8
  store i8 %17, ptr %16, align 1, !tbaa !20
  %18 = icmp ult i32 %15, 128
  br i1 %18, label %19, label %21

19:                                               ; preds = %_ZN6google8protobuf2io19EpsCopyOutputStream11EnsureSpaceEPh.exit
  %20 = getelementptr inbounds nuw i8, ptr %.0.i, i64 3
  br label %_ZN6google8protobuf2io17CodedOutputStream20WriteVarint32ToArrayEjPh.exit

21:                                               ; preds = %_ZN6google8protobuf2io19EpsCopyOutputStream11EnsureSpaceEPh.exit
  %22 = or i8 %17, -128
  store i8 %22, ptr %16, align 1, !tbaa !20
  %23 = lshr i32 %15, 7
  %24 = trunc i32 %23 to i8
  %25 = getelementptr inbounds nuw i8, ptr %.0.i, i64 3
  store i8 %24, ptr %25, align 1, !tbaa !20
  %26 = icmp ult i32 %15, 16384
  %27 = getelementptr inbounds nuw i8, ptr %.0.i, i64 4
  br i1 %26, label %_ZN6google8protobuf2io17CodedOutputStream20WriteVarint32ToArrayEjPh.exit, label %.preheader.preheader

.preheader.preheader:                             ; preds = %21
  %scevgep = getelementptr i8, ptr %.0.i, i64 3
  %load_initial = load i8, ptr %scevgep, align 1
  br label %.preheader

.preheader:                                       ; preds = %.preheader.preheader, %.preheader
  %store_forwarded = phi i8 [ %load_initial, %.preheader.preheader ], [ %31, %.preheader ]
  %.018.i.i = phi i32 [ %23, %.preheader.preheader ], [ %30, %.preheader ]
  %.0.i.i = phi ptr [ %27, %.preheader.preheader ], [ %32, %.preheader ]
  %28 = getelementptr inbounds i8, ptr %.0.i.i, i64 -1
  %29 = or i8 %store_forwarded, -128
  store i8 %29, ptr %28, align 1, !tbaa !20
  %30 = lshr i32 %.018.i.i, 7
  %31 = trunc i32 %30 to i8
  store i8 %31, ptr %.0.i.i, align 1, !tbaa !20
  %32 = getelementptr inbounds nuw i8, ptr %.0.i.i, i64 1
  %33 = icmp samesign ugt i32 %.018.i.i, 16383
  br i1 %33, label %.preheader, label %_ZN6google8protobuf2io17CodedOutputStream20WriteVarint32ToArrayEjPh.exit, !llvm.loop !41

_ZN6google8protobuf2io17CodedOutputStream20WriteVarint32ToArrayEjPh.exit: ; preds = %.preheader, %19, %21
  %.019.i.i = phi ptr [ %20, %19 ], [ %27, %21 ], [ %32, %.preheader ]
  %34 = tail call noundef nonnull align 8 dereferenceable(16) ptr @_ZNK6google8protobuf10Reflection10GetMessageERKNS0_7MessageEPKNS0_15FieldDescriptorEPNS0_14MessageFactoryE(ptr noundef nonnull align 8 dereferenceable(96) %9, ptr noundef nonnull align 8 dereferenceable(16) %1, ptr noundef nonnull %0, ptr noundef null)
  store i8 26, ptr %.019.i.i, align 1, !tbaa !20
  %35 = getelementptr inbounds nuw i8, ptr %.019.i.i, i64 1
  %36 = load ptr, ptr %34, align 8, !tbaa !53
  %37 = getelementptr inbounds nuw i8, ptr %36, i64 72
  %38 = load ptr, ptr %37, align 8
  %39 = tail call noundef i32 %38(ptr noundef nonnull align 8 dereferenceable(16) %34)
  %40 = trunc i32 %39 to i8
  store i8 %40, ptr %35, align 1, !tbaa !20
  %41 = icmp ult i32 %39, 128
  br i1 %41, label %42, label %44

42:                                               ; preds = %_ZN6google8protobuf2io17CodedOutputStream20WriteVarint32ToArrayEjPh.exit
  %43 = getelementptr inbounds nuw i8, ptr %.019.i.i, i64 2
  br label %_ZN6google8protobuf2io17CodedOutputStream29WriteVarint32ToArrayOutOfLineEjPh.exit

44:                                               ; preds = %_ZN6google8protobuf2io17CodedOutputStream20WriteVarint32ToArrayEjPh.exit
  %45 = tail call noundef ptr @_ZN6google8protobuf2io17CodedOutputStream35WriteVarint32ToArrayOutOfLineHelperEjPh(i32 noundef %39, ptr noundef nonnull %35)
  br label %_ZN6google8protobuf2io17CodedOutputStream29WriteVarint32ToArrayOutOfLineEjPh.exit

_ZN6google8protobuf2io17CodedOutputStream29WriteVarint32ToArrayOutOfLineEjPh.exit: ; preds = %42, %44
  %.0.i16 = phi ptr [ %43, %42 ], [ %45, %44 ]
  %46 = load ptr, ptr %34, align 8, !tbaa !53
  %47 = getelementptr inbounds nuw i8, ptr %46, i64 88
  %48 = load ptr, ptr %47, align 8
  %49 = tail call noundef ptr %48(ptr noundef nonnull align 8 dereferenceable(16) %34, ptr noundef %.0.i16, ptr noundef nonnull %3)
  %50 = load ptr, ptr %3, align 8, !tbaa !35
  %.not.i17 = icmp ult ptr %49, %50
  br i1 %.not.i17, label %_ZN6google8protobuf2io19EpsCopyOutputStream11EnsureSpaceEPh.exit19, label %51, !prof !19

51:                                               ; preds = %_ZN6google8protobuf2io17CodedOutputStream29WriteVarint32ToArrayOutOfLineEjPh.exit
  %52 = tail call noundef ptr @_ZN6google8protobuf2io19EpsCopyOutputStream19EnsureSpaceFallbackEPh(ptr noundef nonnull align 8 dereferenceable(59) %3, ptr noundef %49)
  br label %_ZN6google8protobuf2io19EpsCopyOutputStream11EnsureSpaceEPh.exit19

_ZN6google8protobuf2io19EpsCopyOutputStream11EnsureSpaceEPh.exit19: ; preds = %_ZN6google8protobuf2io17CodedOutputStream29WriteVarint32ToArrayOutOfLineEjPh.exit, %51
  %.0.i18 = phi ptr [ %52, %51 ], [ %49, %_ZN6google8protobuf2io17CodedOutputStream29WriteVarint32ToArrayOutOfLineEjPh.exit ]
  store i8 12, ptr %.0.i18, align 1, !tbaa !20
  %53 = getelementptr inbounds nuw i8, ptr %.0.i18, i64 1
  ret ptr %53
}